target datalayout = "e-m:e-p270:32:32-p271:32:32-p272:64:64-i64:64-i128:128-f80:128-n8:16:32:64-S128"
target triple = "x86_64-pc-linux-gnu"

%struct.anon.1 = type { ptr, %struct.pg_encoding }
%struct.pg_encoding = type { ptr, ptr, ptr, ptr }
%struct.FunctionCallInfoBaseData = type { ptr, ptr, ptr, i32, i8, i16, [0 x %struct.NullableDatum] }
%struct.NullableDatum = type { i64, i8 }
%struct.varattrib_1b = type { i8, [0 x i8] }
%struct.anon = type { i32, [0 x i8] }
%struct.varattrib_1b_e = type { i8, i8, [0 x i8] }

@.str = private unnamed_addr constant [28 x i8] c"unrecognized encoding: \22%s\22\00", align 1
@.str.1 = private unnamed_addr constant [9 x i8] c"encode.c\00", align 1
@__func__.binary_encode = private unnamed_addr constant [14 x i8] c"binary_encode\00", align 1
@.str.2 = private unnamed_addr constant [43 x i8] c"result of encoding conversion is too large\00", align 1
@.str.3 = private unnamed_addr constant [37 x i8] c"overflow - encode estimate too small\00", align 1

; Function Attrs: inlinehint nounwind uwtable
define internal i64 @PointerGetDatum(ptr noundef %0) #3 {
  %2 = alloca ptr, align 8
  store ptr %0, ptr %2, align 8
  %3 = load ptr, ptr %2, align 8
  %4 = ptrtoint ptr %3 to i64
  ret i64 %4
}

; Function Attrs: nounwind uwtable
define internal ptr @pg_find_encoding(ptr noundef %0) #0 {
  %2 = alloca ptr, align 8
  %3 = alloca ptr, align 8
  %4 = alloca i32, align 4
  %5 = alloca i32, align 4
  store ptr %0, ptr %3, align 8
  call void @llvm.lifetime.start.p0(i64 4, ptr %4) #6
  store i32 0, ptr %4, align 4
  br label %6

6:                                                ; preds = %28, %1
  %7 = load i32, ptr %4, align 4
  %8 = sext i32 %7 to i64
  %9 = getelementptr inbounds [4 x %struct.anon.1], ptr @enclist, i64 0, i64 %8
  %10 = getelementptr inbounds nuw %struct.anon.1, ptr %9, i32 0, i32 0
  %11 = load ptr, ptr %10, align 8
  %12 = icmp ne ptr %11, null
  br i1 %12, label %13, label %31

13:                                               ; preds = %6
  %14 = load i32, ptr %4, align 4
  %15 = sext i32 %14 to i64
  %16 = getelementptr inbounds [4 x %struct.anon.1], ptr @enclist, i64 0, i64 %15
  %17 = getelementptr inbounds nuw %struct.anon.1, ptr %16, i32 0, i32 0
  %18 = load ptr, ptr %17, align 8
  %19 = load ptr, ptr %3, align 8
  %20 = call i32 @pg_strcasecmp(ptr noundef %18, ptr noundef %19)
  %21 = icmp eq i32 %20, 0
  br i1 %21, label %22, label %27

22:                                               ; preds = %13
  %23 = load i32, ptr %4, align 4
  %24 = sext i32 %23 to i64
  %25 = getelementptr inbounds [4 x %struct.anon.1], ptr @enclist, i64 0, i64 %24
  %26 = getelementptr inbounds nuw %struct.anon.1, ptr %25, i32 0, i32 1
  store ptr %26, ptr %2, align 8
  store i32 1, ptr %5, align 4
  br label %32

27:                                               ; preds = %13
  br label %28

28:                                               ; preds = %27
  %29 = load i32, ptr %4, align 4
  %30 = add i32 %29, 1
  store i32 %30, ptr %4, align 4
  br label %6, !llvm.loop !4

31:                                               ; preds = %6
  store ptr null, ptr %2, align 8
  store i32 1, ptr %5, align 4
  br label %32

32:                                               ; preds = %31, %22
  call void @llvm.lifetime.end.p0(i64 4, ptr %4) #6
  %33 = load ptr, ptr %2, align 8
  ret ptr %33
}

; Function Attrs: inlinehint nounwind uwtable
define internal ptr @DatumGetPointer(i64 noundef %0) #3 {
  %2 = alloca i64, align 8
  store i64 %0, ptr %2, align 8
  %3 = load i64, ptr %2, align 8
  %4 = inttoptr i64 %3 to ptr
  ret ptr %4
}

; Function Attrs: nounwind uwtable
define dso_local i64 @binary_encode(ptr noundef %0) #0 {
  %2 = alloca ptr, align 8
  %3 = alloca ptr, align 8
  %4 = alloca i64, align 8
  %5 = alloca ptr, align 8
  %6 = alloca ptr, align 8
  %7 = alloca ptr, align 8
  %8 = alloca i64, align 8
  %9 = alloca i64, align 8
  %10 = alloca i64, align 8
  %11 = alloca ptr, align 8
  store ptr %0, ptr %2, align 8
  call void @llvm.lifetime.start.p0(i64 8, ptr %3) #6
  %12 = load ptr, ptr %2, align 8
  %13 = getelementptr inbounds nuw %struct.FunctionCallInfoBaseData, ptr %12, i32 0, i32 6
  %14 = getelementptr inbounds [0 x %struct.NullableDatum], ptr %13, i64 0, i64 0
  %15 = getelementptr inbounds nuw %struct.NullableDatum, ptr %14, i32 0, i32 0
  %16 = load i64, ptr %15, align 8
  %17 = call ptr @DatumGetPointer(i64 noundef %16)
  %18 = call ptr @pg_detoast_datum_packed(ptr noundef %17)
  store ptr %18, ptr %3, align 8
  call void @llvm.lifetime.start.p0(i64 8, ptr %4) #6
  %19 = load ptr, ptr %2, align 8
  %20 = getelementptr inbounds nuw %struct.FunctionCallInfoBaseData, ptr %19, i32 0, i32 6
  %21 = getelementptr inbounds [0 x %struct.NullableDatum], ptr %20, i64 0, i64 1
  %22 = getelementptr inbounds nuw %struct.NullableDatum, ptr %21, i32 0, i32 0
  %23 = load i64, ptr %22, align 8
  store i64 %23, ptr %4, align 8
  call void @llvm.lifetime.start.p0(i64 8, ptr %5) #6
  call void @llvm.lifetime.start.p0(i64 8, ptr %6) #6
  call void @llvm.lifetime.start.p0(i64 8, ptr %7) #6
  call void @llvm.lifetime.start.p0(i64 8, ptr %8) #6
  call void @llvm.lifetime.start.p0(i64 8, ptr %9) #6
  call void @llvm.lifetime.start.p0(i64 8, ptr %10) #6
  call void @llvm.lifetime.start.p0(i64 8, ptr %11) #6
  %24 = load i64, ptr %4, align 8
  %25 = call ptr @DatumGetPointer(i64 noundef %24)
  %26 = call ptr @text_to_cstring(ptr noundef %25)
  store ptr %26, ptr %6, align 8
  %27 = load ptr, ptr %6, align 8
  %28 = call ptr @pg_find_encoding(ptr noundef %27)
  store ptr %28, ptr %11, align 8
  %29 = load ptr, ptr %11, align 8
  %30 = icmp eq ptr %29, null
  br i1 %30, label %31, label %44

31:                                               ; preds = %1
  br label %32

32:                                               ; preds = %31
  br i1 true, label %33, label %35

33:                                               ; preds = %32
  %34 = call zeroext i1 @errstart_cold(i32 noundef 21, ptr noundef null) #7
  br i1 %34, label %37, label %41

35:                                               ; preds = %32
  %36 = call zeroext i1 @errstart(i32 noundef 21, ptr noundef null)
  br i1 %36, label %37, label %41

37:                                               ; preds = %35, %33
  %38 = call i32 @errcode(i32 noundef 50856066)
  %39 = load ptr, ptr %6, align 8
  %40 = call i32 (ptr, ...) @errmsg(ptr noundef @.str, ptr noundef %39)
  call void @errfinish(ptr noundef @.str.1, i32 noundef 66, ptr noundef @__func__.binary_encode)
  br label %41

41:                                               ; preds = %37, %35, %33
  unreachable

42:                                               ; No predecessors!
  br label %43

43:                                               ; preds = %42
  br label %44

44:                                               ; preds = %43, %1
  %45 = load ptr, ptr %3, align 8
  %46 = getelementptr inbounds nuw %struct.varattrib_1b, ptr %45, i32 0, i32 0
  %47 = load i8, ptr %46, align 1
  %48 = zext i8 %47 to i32
  %49 = and i32 %48, 1
  %50 = icmp eq i32 %49, 1
  br i1 %50, label %51, label %55

51:                                               ; preds = %44
  %52 = load ptr, ptr %3, align 8
  %53 = getelementptr inbounds nuw %struct.varattrib_1b, ptr %52, i32 0, i32 1
  %54 = getelementptr inbounds [0 x i8], ptr %53, i64 0, i64 0
  br label %59

55:                                               ; preds = %44
  %56 = load ptr, ptr %3, align 8
  %57 = getelementptr inbounds nuw %struct.anon, ptr %56, i32 0, i32 1
  %58 = getelementptr inbounds [0 x i8], ptr %57, i64 0, i64 0
  br label %59

59:                                               ; preds = %55, %51
  %60 = phi ptr [ %54, %51 ], [ %58, %55 ]
  store ptr %60, ptr %7, align 8
  %61 = load ptr, ptr %3, align 8
  %62 = getelementptr inbounds nuw %struct.varattrib_1b, ptr %61, i32 0, i32 0
  %63 = load i8, ptr %62, align 1
  %64 = zext i8 %63 to i32
  %65 = icmp eq i32 %64, 1
  br i1 %65, label %66, label %94

66:                                               ; preds = %59
  %67 = load ptr, ptr %3, align 8
  %68 = getelementptr inbounds nuw %struct.varattrib_1b_e, ptr %67, i32 0, i32 1
  %69 = load i8, ptr %68, align 1
  %70 = zext i8 %69 to i32
  %71 = icmp eq i32 %70, 1
  br i1 %71, label %72, label %73

72:                                               ; preds = %66
  br label %90

73:                                               ; preds = %66
  %74 = load ptr, ptr %3, align 8
  %75 = getelementptr inbounds nuw %struct.varattrib_1b_e, ptr %74, i32 0, i32 1
  %76 = load i8, ptr %75, align 1
  %77 = zext i8 %76 to i32
  %78 = and i32 %77, -2
  %79 = icmp eq i32 %78, 2
  br i1 %79, label %80, label %81

80:                                               ; preds = %73
  br label %88

81:                                               ; preds = %73
  %82 = load ptr, ptr %3, align 8
  %83 = getelementptr inbounds nuw %struct.varattrib_1b_e, ptr %82, i32 0, i32 1
  %84 = load i8, ptr %83, align 1
  %85 = zext i8 %84 to i32
  %86 = icmp eq i32 %85, 18
  %87 = select i1 %86, i64 16, i64 0
  br label %88

88:                                               ; preds = %81, %80
  %89 = phi i64 [ 8, %80 ], [ %87, %81 ]
  br label %90

90:                                               ; preds = %88, %72
  %91 = phi i64 [ 8, %72 ], [ %89, %88 ]
  %92 = add i64 2, %91
  %93 = sub i64 %92, 2
  br label %120

94:                                               ; preds = %59
  %95 = load ptr, ptr %3, align 8
  %96 = getelementptr inbounds nuw %struct.varattrib_1b, ptr %95, i32 0, i32 0
  %97 = load i8, ptr %96, align 1
  %98 = zext i8 %97 to i32
  %99 = and i32 %98, 1
  %100 = icmp eq i32 %99, 1
  br i1 %100, label %101, label %110

101:                                              ; preds = %94
  %102 = load ptr, ptr %3, align 8
  %103 = getelementptr inbounds nuw %struct.varattrib_1b, ptr %102, i32 0, i32 0
  %104 = load i8, ptr %103, align 1
  %105 = zext i8 %104 to i32
  %106 = ashr i32 %105, 1
  %107 = and i32 %106, 127
  %108 = sext i32 %107 to i64
  %109 = sub i64 %108, 1
  br label %118

110:                                              ; preds = %94
  %111 = load ptr, ptr %3, align 8
  %112 = getelementptr inbounds nuw %struct.anon, ptr %111, i32 0, i32 0
  %113 = load i32, ptr %112, align 4
  %114 = lshr i32 %113, 2
  %115 = and i32 %114, 1073741823
  %116 = sub i32 %115, 4
  %117 = zext i32 %116 to i64
  br label %118

118:                                              ; preds = %110, %101
  %119 = phi i64 [ %109, %101 ], [ %117, %110 ]
  br label %120

120:                                              ; preds = %118, %90
  %121 = phi i64 [ %93, %90 ], [ %119, %118 ]
  store i64 %121, ptr %8, align 8
  %122 = load ptr, ptr %11, align 8
  %123 = getelementptr inbounds nuw %struct.pg_encoding, ptr %122, i32 0, i32 0
  %124 = load ptr, ptr %123, align 8
  %125 = load ptr, ptr %7, align 8
  %126 = load i64, ptr %8, align 8
  %127 = call i64 %124(ptr noundef %125, i64 noundef %126)
  store i64 %127, ptr %9, align 8
  %128 = load i64, ptr %9, align 8
  %129 = icmp ugt i64 %128, 1073741819
  br i1 %129, label %130, label %142

130:                                              ; preds = %120
  br label %131

131:                                              ; preds = %130
  br i1 true, label %132, label %134

132:                                              ; preds = %131
  %133 = call zeroext i1 @errstart_cold(i32 noundef 21, ptr noundef null) #7
  br i1 %133, label %136, label %139

134:                                              ; preds = %131
  %135 = call zeroext i1 @errstart(i32 noundef 21, ptr noundef null)
  br i1 %135, label %136, label %139

136:                                              ; preds = %134, %132
  %137 = call i32 @errcode(i32 noundef 261)
  %138 = call i32 (ptr, ...) @errmsg(ptr noundef @.str.2)
  call void @errfinish(ptr noundef @.str.1, i32 noundef 80, ptr noundef @__func__.binary_encode)
  br label %139

139:                                              ; preds = %136, %134, %132
  unreachable

140:                                              ; No predecessors!
  br label %141

141:                                              ; preds = %140
  br label %142

142:                                              ; preds = %141, %120
  %143 = load i64, ptr %9, align 8
  %144 = add i64 4, %143
  %145 = call ptr @palloc(i64 noundef %144)
  store ptr %145, ptr %5, align 8
  %146 = load ptr, ptr %11, align 8
  %147 = getelementptr inbounds nuw %struct.pg_encoding, ptr %146, i32 0, i32 2
  %148 = load ptr, ptr %147, align 8
  %149 = load ptr, ptr %7, align 8
  %150 = load i64, ptr %8, align 8
  %151 = load ptr, ptr %5, align 8
  %152 = getelementptr inbounds nuw %struct.anon, ptr %151, i32 0, i32 1
  %153 = getelementptr inbounds [0 x i8], ptr %152, i64 0, i64 0
  %154 = call i64 %148(ptr noundef %149, i64 noundef %150, ptr noundef %153)
  store i64 %154, ptr %10, align 8
  %155 = load i64, ptr %10, align 8
  %156 = load i64, ptr %9, align 8
  %157 = icmp ugt i64 %155, %156
  br i1 %157, label %158, label %169

158:                                              ; preds = %142
  br label %159

159:                                              ; preds = %158
  br i1 true, label %160, label %162

160:                                              ; preds = %159
  %161 = call zeroext i1 @errstart_cold(i32 noundef 22, ptr noundef null) #7
  br i1 %161, label %164, label %166

162:                                              ; preds = %159
  %163 = call zeroext i1 @errstart(i32 noundef 22, ptr noundef null)
  br i1 %163, label %164, label %166

164:                                              ; preds = %162, %160
  %165 = call i32 (ptr, ...) @errmsg_internal(ptr noundef @.str.3)
  call void @errfinish(ptr noundef @.str.1, i32 noundef 88, ptr noundef @__func__.binary_encode)
  br label %166

166:                                              ; preds = %164, %162, %160
  unreachable

167:                                              ; No predecessors!
  br label %168

168:                                              ; preds = %167
  br label %169

169:                                              ; preds = %168, %142
  %170 = load i64, ptr %10, align 8
  %171 = add i64 4, %170
  %172 = trunc i64 %171 to i32
  %173 = shl i32 %172, 2
  %174 = load ptr, ptr %5, align 8
  %175 = getelementptr inbounds nuw %struct.anon, ptr %174, i32 0, i32 0
  store i32 %173, ptr %175, align 4
  %176 = load ptr, ptr %5, align 8
  %177 = call i64 @PointerGetDatum(ptr noundef %176)
  call void @llvm.lifetime.end.p0(i64 8, ptr %11) #6
  call void @llvm.lifetime.end.p0(i64 8, ptr %10) #6
  call void @llvm.lifetime.end.p0(i64 8, ptr %9) #6
  call void @llvm.lifetime.end.p0(i64 8, ptr %8) #6
  call void @llvm.lifetime.end.p0(i64 8, ptr %7) #6
  call void @llvm.lifetime.end.p0(i64 8, ptr %6) #6
  call void @llvm.lifetime.end.p0(i64 8, ptr %5) #6
  call void @llvm.lifetime.end.p0(i64 8, ptr %4) #6
  call void @llvm.lifetime.end.p0(i64 8, ptr %3) #6
  ret i64 %177
}