; Function Attrs: nounwind uwtable
define dso_local i64 @binary_encode(ptr noundef readonly captures(none) %0) local_unnamed_addr #0 {
  %2 = getelementptr inbounds nuw i8, ptr %0, i64 32
  %3 = load i64, ptr %2, align 8
  %4 = inttoptr i64 %3 to ptr
  %5 = tail call ptr @pg_detoast_datum_packed(ptr noundef %4) #7
  %6 = getelementptr inbounds nuw i8, ptr %0, i64 48
  %7 = load i64, ptr %6, align 8
  %8 = inttoptr i64 %7 to ptr
  %9 = tail call ptr @text_to_cstring(ptr noundef %8) #7
  %10 = tail call i32 @pg_strcasecmp(ptr noundef nonnull @.str.8, ptr noundef %9) #7
  %11 = icmp eq i32 %10, 0
  br i1 %11, label %._crit_edge, label %.lr.ph

.lr.ph:                                           ; preds = %1, %12
  %indvars.iv.i36 = phi i64 [ %indvars.iv.next.i, %12 ], [ 0, %1 ]
  %indvars.iv.next.i = add nuw nsw i64 %indvars.iv.i36, 1
  %exitcond.i = icmp eq i64 %indvars.iv.next.i, 3
  br i1 %exitcond.i, label %17, label %12, !llvm.loop !4

12:                                               ; preds = %.lr.ph
  %13 = getelementptr inbounds nuw [4 x %struct.anon.1], ptr @enclist, i64 0, i64 %indvars.iv.next.i
  %14 = load ptr, ptr %13, align 8
  %15 = tail call i32 @pg_strcasecmp(ptr noundef nonnull %14, ptr noundef %9) #7
  %16 = icmp eq i32 %15, 0
  br i1 %16, label %._crit_edge, label %.lr.ph, !llvm.loop !4

17:                                               ; preds = %.lr.ph
  %18 = tail call zeroext i1 @errstart_cold(i32 noundef 21, ptr noundef null) #8
  tail call void @llvm.assume(i1 %18)
  %19 = tail call i32 @errcode(i32 noundef 50856066) #7
  %20 = tail call i32 (ptr, ...) @errmsg(ptr noundef nonnull @.str, ptr noundef %9) #7
  tail call void @errfinish(ptr noundef nonnull @.str.1, i32 noundef 66, ptr noundef nonnull @__func__.binary_encode) #7
  unreachable

._crit_edge:                                      ; preds = %12, %1
  %.lcssa = phi ptr [ @enclist, %1 ], [ %13, %12 ]
  %21 = getelementptr inbounds nuw i8, ptr %.lcssa, i64 8
  %22 = load i8, ptr %5, align 1
  %23 = zext i8 %22 to i32
  %24 = and i32 %23, 1
  %.not = icmp eq i32 %24, 0
  %25 = getelementptr inbounds nuw i8, ptr %5, i64 1
  %26 = getelementptr inbounds nuw i8, ptr %5, i64 4
  %27 = select i1 %.not, ptr %26, ptr %25
  %28 = icmp eq i8 %22, 1
  br i1 %28, label %29, label %37

29:                                               ; preds = %._crit_edge
  %30 = load i8, ptr %25, align 1
  %31 = icmp eq i8 %30, 1
  %32 = and i8 %30, -2
  %33 = icmp eq i8 %32, 2
  %or.cond = or i1 %31, %33
  %34 = icmp eq i8 %30, 18
  %35 = select i1 %34, i64 16, i64 0
  %36 = select i1 %or.cond, i64 8, i64 %35
  br label %47

37:                                               ; preds = %._crit_edge
  br i1 %.not, label %42, label %38

38:                                               ; preds = %37
  %39 = lshr i32 %23, 1
  %40 = zext nneg i32 %39 to i64
  %41 = add nsw i64 %40, -1
  br label %47

42:                                               ; preds = %37
  %43 = load i32, ptr %5, align 4
  %44 = lshr i32 %43, 2
  %45 = add nsw i32 %44, -4
  %46 = zext i32 %45 to i64
  br label %47

47:                                               ; preds = %38, %42, %29
  %48 = phi i64 [ %36, %29 ], [ %41, %38 ], [ %46, %42 ]
  %49 = load ptr, ptr %21, align 8
  %50 = tail call i64 %49(ptr noundef nonnull %27, i64 noundef %48) #7
  %51 = icmp ugt i64 %50, 1073741819
  br i1 %51, label %52, label %56

52:                                               ; preds = %47
  %53 = tail call zeroext i1 @errstart_cold(i32 noundef 21, ptr noundef null) #8
  tail call void @llvm.assume(i1 %53)
  %54 = tail call i32 @errcode(i32 noundef 261) #7
  %55 = tail call i32 (ptr, ...) @errmsg(ptr noundef nonnull @.str.2) #7
  tail call void @errfinish(ptr noundef nonnull @.str.1, i32 noundef 80, ptr noundef nonnull @__func__.binary_encode) #7
  unreachable

56:                                               ; preds = %47
  %57 = add nuw nsw i64 %50, 4
  %58 = tail call ptr @palloc(i64 noundef %57) #7
  %59 = getelementptr inbounds nuw i8, ptr %.lcssa, i64 24
  %60 = load ptr, ptr %59, align 8
  %61 = getelementptr inbounds nuw i8, ptr %58, i64 4
  %62 = tail call i64 %60(ptr noundef nonnull %27, i64 noundef %48, ptr noundef nonnull %61) #7
  %63 = icmp ugt i64 %62, %50
  br i1 %63, label %64, label %67

64:                                               ; preds = %56
  %65 = tail call zeroext i1 @errstart_cold(i32 noundef 22, ptr noundef null) #8
  tail call void @llvm.assume(i1 %65)
  %66 = tail call i32 (ptr, ...) @errmsg_internal(ptr noundef nonnull @.str.3) #7
  tail call void @errfinish(ptr noundef nonnull @.str.1, i32 noundef 88, ptr noundef nonnull @__func__.binary_encode) #7
  unreachable

67:                                               ; preds = %56
  %68 = trunc i64 %62 to i32
  %69 = shl nuw i32 %68, 2
  %70 = add nuw i32 %69, 16
  store i32 %70, ptr %58, align 4
  %71 = ptrtoint ptr %58 to i64
  ret i64 %71
}